target datalayout = "e-m:e-p270:32:32-p271:32:32-p272:64:64-i64:64-i128:128-f80:128-n8:16:32:64-S128"
target triple = "x86_64-unknown-linux-gnu"

%"class.icu_75::UMutex" = type { [40 x i8], %"struct.std::atomic", ptr }
%"struct.std::atomic" = type { %"struct.std::__atomic_base" }
%"struct.std::__atomic_base" = type { ptr }
%"class.icu_75::ICUNotifier" = type { ptr, ptr }
%"class.icu_75::Mutex" = type { ptr }
%"class.icu_75::UVector" = type { %"class.icu_75::UObject", i32, i32, ptr, ptr, ptr }
%"class.icu_75::UObject" = type { ptr }

@_ZN6icu_75L10notifyLockE = internal global %"class.icu_75::UMutex" zeroinitializer, align 8

; Function Attrs: mustprogress nounwind uwtable
define linkonce_odr void @_ZN6icu_755MutexD2Ev(ptr noundef nonnull align 8 dereferenceable(8) %this) unnamed_addr #0 comdat align 2 personality ptr @__gxx_personality_v0 {
entry:
  %this.addr = alloca ptr, align 8
  store ptr %this, ptr %this.addr, align 8
  %this1 = load ptr, ptr %this.addr, align 8
  %fMutex = getelementptr inbounds %"class.icu_75::Mutex", ptr %this1, i32 0, i32 0
  %0 = load ptr, ptr %fMutex, align 8
  invoke void @umtx_unlock_75(ptr noundef %0)
          to label %invoke.cont unwind label %terminate.lpad

invoke.cont:                                      ; preds = %entry
  ret void

terminate.lpad:                                   ; preds = %entry
  %1 = landingpad { ptr, i32 }
          catch ptr null
  %2 = extractvalue { ptr, i32 } %1, 0
  call void @__clang_call_terminate(ptr %2) #7
  unreachable
}

; Function Attrs: mustprogress nounwind uwtable
define linkonce_odr noundef i32 @_ZNK6icu_757UVector4sizeEv(ptr noundef nonnull align 8 dereferenceable(40) %this) #0 comdat align 2 {
entry:
  %this.addr = alloca ptr, align 8
  store ptr %this, ptr %this.addr, align 8
  %this1 = load ptr, ptr %this.addr, align 8
  %count = getelementptr inbounds %"class.icu_75::UVector", ptr %this1, i32 0, i32 1
  %0 = load i32, ptr %count, align 8
  ret i32 %0
}

; Function Attrs: mustprogress uwtable
define linkonce_odr void @_ZN6icu_755MutexC2EPNS_6UMutexE(ptr noundef nonnull align 8 dereferenceable(8) %this, ptr noundef %mutex) unnamed_addr #2 comdat align 2 {
entry:
  %this.addr = alloca ptr, align 8
  %mutex.addr = alloca ptr, align 8
  store ptr %this, ptr %this.addr, align 8
  store ptr %mutex, ptr %mutex.addr, align 8
  %this1 = load ptr, ptr %this.addr, align 8
  %fMutex = getelementptr inbounds %"class.icu_75::Mutex", ptr %this1, i32 0, i32 0
  %0 = load ptr, ptr %mutex.addr, align 8
  store ptr %0, ptr %fMutex, align 8
  %fMutex2 = getelementptr inbounds %"class.icu_75::Mutex", ptr %this1, i32 0, i32 0
  %1 = load ptr, ptr %fMutex2, align 8
  call void @umtx_lock_75(ptr noundef %1)
  ret void
}

; Function Attrs: mustprogress uwtable
define void @_ZN6icu_7511ICUNotifier13notifyChangedEv(ptr noundef nonnull align 8 dereferenceable(16) %this) unnamed_addr #2 align 2 personality ptr @__gxx_personality_v0 {
entry:
  %this.addr = alloca ptr, align 8
  %lmx = alloca %"class.icu_75::Mutex", align 8
  %i = alloca i32, align 4
  %e = alloca i32, align 4
  %exn.slot = alloca ptr, align 8
  %ehselector.slot = alloca i32, align 4
  %el = alloca ptr, align 8
  store ptr %this, ptr %this.addr, align 8
  %this1 = load ptr, ptr %this.addr, align 8
  call void @_ZN6icu_755MutexC2EPNS_6UMutexE(ptr noundef nonnull align 8 dereferenceable(8) %lmx, ptr noundef @_ZN6icu_75L10notifyLockE)
  %listeners = getelementptr inbounds %"class.icu_75::ICUNotifier", ptr %this1, i32 0, i32 1
  %0 = load ptr, ptr %listeners, align 8
  %cmp = icmp ne ptr %0, null
  br i1 %cmp, label %if.then, label %if.end

if.then:                                          ; preds = %entry
  store i32 0, ptr %i, align 4
  %listeners2 = getelementptr inbounds %"class.icu_75::ICUNotifier", ptr %this1, i32 0, i32 1
  %1 = load ptr, ptr %listeners2, align 8
  %call = invoke noundef i32 @_ZNK6icu_757UVector4sizeEv(ptr noundef nonnull align 8 dereferenceable(40) %1)
          to label %invoke.cont unwind label %lpad

invoke.cont:                                      ; preds = %if.then
  store i32 %call, ptr %e, align 4
  br label %for.cond

for.cond:                                         ; preds = %for.inc, %invoke.cont
  %2 = load i32, ptr %i, align 4
  %3 = load i32, ptr %e, align 4
  %cmp3 = icmp slt i32 %2, %3
  br i1 %cmp3, label %for.body, label %for.end

for.body:                                         ; preds = %for.cond
  %listeners4 = getelementptr inbounds %"class.icu_75::ICUNotifier", ptr %this1, i32 0, i32 1
  %4 = load ptr, ptr %listeners4, align 8
  %5 = load i32, ptr %i, align 4
  %call6 = invoke noundef ptr @_ZNK6icu_757UVector9elementAtEi(ptr noundef nonnull align 8 dereferenceable(40) %4, i32 noundef %5)
          to label %invoke.cont5 unwind label %lpad

invoke.cont5:                                     ; preds = %for.body
  store ptr %call6, ptr %el, align 8
  %6 = load ptr, ptr %el, align 8
  %vtable = load ptr, ptr %this1, align 8
  %vfn = getelementptr inbounds ptr, ptr %vtable, i64 6
  %7 = load ptr, ptr %vfn, align 8
  invoke void %7(ptr noundef nonnull align 8 dereferenceable(16) %this1, ptr noundef nonnull align 8 dereferenceable(8) %6)
          to label %invoke.cont7 unwind label %lpad

invoke.cont7:                                     ; preds = %invoke.cont5
  br label %for.inc

for.inc:                                          ; preds = %invoke.cont7
  %8 = load i32, ptr %i, align 4
  %inc = add nsw i32 %8, 1
  store i32 %inc, ptr %i, align 4
  br label %for.cond, !llvm.loop !7

lpad:                                             ; preds = %invoke.cont5, %for.body, %if.then
  %9 = landingpad { ptr, i32 }
          cleanup
  %10 = extractvalue { ptr, i32 } %9, 0
  store ptr %10, ptr %exn.slot, align 8
  %11 = extractvalue { ptr, i32 } %9, 1
  store i32 %11, ptr %ehselector.slot, align 4
  call void @_ZN6icu_755MutexD2Ev(ptr noundef nonnull align 8 dereferenceable(8) %lmx) #6
  br label %eh.resume

for.end:                                          ; preds = %for.cond
  br label %if.end

if.end:                                           ; preds = %for.end, %entry
  call void @_ZN6icu_755MutexD2Ev(ptr noundef nonnull align 8 dereferenceable(8) %lmx) #6
  ret void

eh.resume:                                        ; preds = %lpad
  %exn = load ptr, ptr %exn.slot, align 8
  %sel = load i32, ptr %ehselector.slot, align 4
  %lpad.val = insertvalue { ptr, i32 } poison, ptr %exn, 0
  %lpad.val8 = insertvalue { ptr, i32 } %lpad.val, i32 %sel, 1
  resume { ptr, i32 } %lpad.val8
}