; Function Attrs: mustprogress uwtable
define void @_ZN6icu_7511ICUNotifier13notifyChangedEv(ptr noundef nonnull align 8 dereferenceable(16) %this) unnamed_addr #7 align 2 personality ptr @__gxx_personality_v0 {
entry:
  tail call void @umtx_lock_75(ptr noundef nonnull @_ZN6icu_75L10notifyLockE)
  %listeners = getelementptr inbounds i8, ptr %this, i64 8
  %0 = load ptr, ptr %listeners, align 8
  %cmp.not = icmp eq ptr %0, null
  br i1 %cmp.not, label %if.end, label %if.then

if.then:                                          ; preds = %entry
  %count.i = getelementptr inbounds i8, ptr %0, i64 8
  %1 = load i32, ptr %count.i, align 8
  %cmp36 = icmp sgt i32 %1, 0
  br i1 %cmp36, label %for.body, label %if.end

for.body:                                         ; preds = %if.then, %for.inc
  %i.07 = phi i32 [ %inc, %for.inc ], [ 0, %if.then ]
  %2 = load ptr, ptr %listeners, align 8
  %call6 = invoke noundef ptr @_ZNK6icu_757UVector9elementAtEi(ptr noundef nonnull align 8 dereferenceable(40) %2, i32 noundef %i.07)
          to label %invoke.cont5 unwind label %lpad

invoke.cont5:                                     ; preds = %for.body
  %vtable = load ptr, ptr %this, align 8
  %vfn = getelementptr inbounds i8, ptr %vtable, i64 48
  %3 = load ptr, ptr %vfn, align 8
  invoke void %3(ptr noundef nonnull align 8 dereferenceable(16) %this, ptr noundef nonnull align 8 dereferenceable(8) %call6)
          to label %for.inc unwind label %lpad

for.inc:                                          ; preds = %invoke.cont5
  %inc = add nuw nsw i32 %i.07, 1
  %exitcond.not = icmp eq i32 %inc, %1
  br i1 %exitcond.not, label %if.end, label %for.body, !llvm.loop !7

lpad:                                             ; preds = %invoke.cont5, %for.body
  %4 = landingpad { ptr, i32 }
          cleanup
  invoke void @umtx_unlock_75(ptr noundef nonnull @_ZN6icu_75L10notifyLockE)
          to label %_ZN6icu_755MutexD2Ev.exit unwind label %terminate.lpad.i

terminate.lpad.i:                                 ; preds = %lpad
  %5 = landingpad { ptr, i32 }
          catch ptr null
  %6 = extractvalue { ptr, i32 } %5, 0
  tail call void @__clang_call_terminate(ptr %6) #10
  unreachable

_ZN6icu_755MutexD2Ev.exit:                        ; preds = %lpad
  resume { ptr, i32 } %4

if.end:                                           ; preds = %for.inc, %if.then, %entry
  invoke void @umtx_unlock_75(ptr noundef nonnull @_ZN6icu_75L10notifyLockE)
          to label %_ZN6icu_755MutexD2Ev.exit4 unwind label %terminate.lpad.i3

terminate.lpad.i3:                                ; preds = %if.end
  %7 = landingpad { ptr, i32 }
          catch ptr null
  %8 = extractvalue { ptr, i32 } %7, 0
  tail call void @__clang_call_terminate(ptr %8) #10
  unreachable

_ZN6icu_755MutexD2Ev.exit4:                       ; preds = %if.end
  ret void
}